ccollections
defaultdict
p0
(c__builtin__
dict
p1
tp2
Rp3
F0.0
(dp4
F0.0625
I-32
sF0.125
I-37
sF2.0
I-67
sF3.0
I-55
sF4.0
I-52
sF3.0625
I-51
sF1.25
I-51
sF1.0
I-52
sF3.3125
I-70
sF3.25
I-56
sF4.0625
I-53
sF0.5625
I-43
sF3.8125
I-58
sF4.375
I-50
sF2.1875
I-56
sF2.125
I-50
sF2.375
I-63
sF0.625
I-49
sF2.625
I-51
sF0.875
I-44
sF4.75
I-49
sF2.875
I-58
sF4.8125
I-55
sF2.8125
I-51
sF3.125
I-49
sF3.375
I-53
sF1.5
I-50
sF4.1875
I-51
sF3.625
I-50
sF1.625
I-52
sF1.375
I-62
sF0.375
I-42
sF4.5
I-51
sF1.875
I-53
sF4.6875
I-53
sF2.4375
I-52
sF4.25
I-51
sF1.125
I-50
sF1.3125
I-48
sF4.4375
I-52
sF1.75
I-55
sF2.9375
I-53
sF4.9375
I-54
sF3.1875
I-52
sF3.4375
I-53
sF4.3125
I-48
sF3.6875
I-56
sF3.5625
I-48
sF3.9375
I-57
sF2.25
I-50
sF4.625
I-52
sF2.5
I-51
sF1.0625
I-47
sF2.0625
I-55
sF0.1875
I-44
sF2.75
I-59
sF1.1875
I-56
sF0.5
I-44
sF4.5625
I-55
sF0.25
I-39
sF2.6875
I-67
sF1.4375
I-52
sF4.125
I-52
sF3.5
I-50
sF1.5625
I-47
sF0.6875
I-45
sF3.75
I-57
sF1.6875
I-54
sF0.75
I-44
sF4.875
I-53
sF1.8125
I-50
sF0.8125
I-53
sF2.3125
I-59
sF5.0
I-54
sF1.9375
I-56
sF0.4375
I-44
sF3.875
I-56
sF2.5625
I-50
sF0.9375
I-47
sF0.3125
I-42
ssF22.5
(dp5
F0.0625
I-36
sF0.125
I-36
sF2.0
I-48
sF3.0
I-53
sF4.0
I-54
sF3.0625
I-50
sF1.25
I-56
sF1.0
I-43
sF3.3125
I-50
sF3.25
I-49
sF4.0625
I-62
sF0.5625
I-55
sF3.8125
I-50
sF4.375
I-44
sF2.1875
I-62
sF2.125
I-52
sF2.375
I-50
sF0.625
I-50
sF2.625
I-51
sF0.875
I-52
sF4.75
I-48
sF2.875
I-65
sF4.8125
I-57
sF2.8125
I-50
sF3.125
I-46
sF3.375
I-48
sF1.5
I-48
sF4.1875
I-51
sF3.625
I-48
sF1.625
I-61
sF1.375
I-44
sF0.375
I-42
sF4.5
I-44
sF1.875
I-50
sF4.6875
I-50
sF2.4375
I-47
sF4.25
I-48
sF1.125
I-46
sF1.3125
I-49
sF4.4375
I-45
sF1.75
I-48
sF2.9375
I-54
sF4.9375
I-52
sF3.1875
I-47
sF3.4375
I-48
sF4.3125
I-46
sF3.6875
I-49
sF3.5625
I-47
sF3.9375
I-62
sF2.25
I-56
sF4.625
I-46
sF2.5
I-44
sF1.0625
I-44
sF2.0625
I-47
sF0.1875
I-37
sF2.75
I-53
sF1.1875
I-49
sF0.5
I-44
sF4.5625
I-44
sF0.25
I-39
sF2.6875
I-47
sF1.4375
I-46
sF4.125
I-51
sF3.5
I-45
sF1.5625
I-46
sF0.6875
I-43
sF3.75
I-49
sF1.6875
I-57
sF0.75
I-44
sF4.875
I-51
sF1.8125
I-49
sF0.8125
I-63
sF2.3125
I-48
sF5.0
I-50
sF1.9375
I-44
sF0.4375
I-39
sF3.875
I-66
sF2.5625
I-47
sF0.9375
I-54
sF0.3125
I-41
ssF157.5
(dp6
F0.0625
I-27
sF0.125
I-29
sF2.0
I-47
sF3.0
I-48
sF4.0
I-55
sF3.0625
I-56
sF1.25
I-47
sF1.0
I-46
sF3.3125
I-56
sF3.25
I-53
sF4.0625
I-52
sF0.5625
I-44
sF3.8125
I-52
sF4.375
I-54
sF2.1875
I-48
sF2.125
I-47
sF2.375
I-56
sF0.625
I-44
sF2.625
I-48
sF0.875
I-50
sF4.75
I-54
sF2.875
I-63
sF4.8125
I-49
sF2.8125
I-50
sF3.125
I-47
sF3.375
I-49
sF1.5
I-49
sF4.1875
I-49
sF3.625
I-49
sF1.625
I-48
sF1.375
I-48
sF0.375
I-39
sF4.5
I-52
sF1.875
I-52
sF4.6875
I-54
sF2.4375
I-49
sF4.25
I-52
sF1.125
I-47
sF1.3125
I-52
sF4.4375
I-51
sF1.75
I-48
sF2.9375
I-51
sF4.9375
I-51
sF3.1875
I-50
sF3.4375
I-47
sF4.3125
I-50
sF3.6875
I-48
sF3.5625
I-51
sF3.9375
I-62
sF2.25
I-52
sF4.625
I-52
sF2.5
I-47
sF1.0625
I-47
sF2.0625
I-45
sF0.1875
I-33
sF2.75
I-51
sF1.1875
I-47
sF0.5
I-40
sF4.5625
I-50
sF0.25
I-38
sF2.6875
I-53
sF1.4375
I-48
sF4.125
I-52
sF3.5
I-47
sF1.5625
I-48
sF0.6875
I-44
sF3.75
I-57
sF1.6875
I-50
sF0.75
I-46
sF4.875
I-54
sF1.8125
I-51
sF0.8125
I-46
sF2.3125
I-53
sF5.0
I-53
sF1.9375
I-47
sF0.4375
I-38
sF3.875
I-51
sF2.5625
I-47
sF0.9375
I-43
sF0.3125
I-37
ssF67.5
(dp7
F0.0625
I-28
sF0.125
I-31
sF2.0
I-48
sF3.0
I-47
sF4.0
I-45
sF3.0625
I-54
sF1.25
I-48
sF1.0
I-44
sF3.3125
I-46
sF3.25
I-50
sF4.0625
I-51
sF0.5625
I-37
sF3.8125
I-48
sF4.375
I-49
sF2.1875
I-48
sF2.125
I-52
sF2.375
I-47
sF0.625
I-39
sF2.625
I-47
sF0.875
I-42
sF4.75
I-47
sF2.875
I-50
sF4.8125
I-46
sF2.8125
I-47
sF3.125
I-50
sF3.375
I-44
sF1.5
I-51
sF4.1875
I-47
sF3.625
I-49
sF1.625
I-50
sF1.375
I-48
sF0.375
I-35
sF4.5
I-46
sF1.875
I-51
sF4.6875
I-46
sF2.4375
I-50
sF4.25
I-46
sF1.125
I-50
sF1.3125
I-47
sF4.4375
I-47
sF1.75
I-57
sF2.9375
I-51
sF4.9375
I-50
sF3.1875
I-50
sF3.4375
I-44
sF4.3125
I-49
sF3.6875
I-47
sF3.5625
I-47
sF3.9375
I-50
sF2.25
I-53
sF4.625
I-47
sF2.5
I-54
sF1.0625
I-44
sF2.0625
I-51
sF0.1875
I-31
sF2.75
I-47
sF1.1875
I-44
sF0.5
I-38
sF4.5625
I-46
sF0.25
I-36
sF2.6875
I-46
sF1.4375
I-57
sF4.125
I-54
sF3.5
I-48
sF1.5625
I-51
sF0.6875
I-39
sF3.75
I-49
sF1.6875
I-54
sF0.75
I-39
sF4.875
I-50
sF1.8125
I-48
sF0.8125
I-47
sF2.3125
I-46
sF5.0
I-46
sF1.9375
I-52
sF0.4375
I-36
sF3.875
I-51
sF2.5625
I-48
sF0.9375
I-44
sF0.3125
I-38
ssF135.0
(dp8
F0.0625
I-25
sF0.125
I-25
sF2.0
I-48
sF3.0
I-58
sF4.0
I-51
sF3.0625
I-62
sF1.25
I-42
sF1.0
I-44
sF3.3125
I-54
sF3.25
I-51
sF4.0625
I-56
sF0.5625
I-39
sF3.8125
I-54
sF4.375
I-45
sF2.1875
I-48
sF2.125
I-48
sF2.375
I-45
sF0.625
I-45
sF2.625
I-48
sF0.875
I-39
sF4.75
I-48
sF2.875
I-46
sF4.8125
I-46
sF2.8125
I-48
sF3.125
I-58
sF3.375
I-50
sF1.5
I-44
sF4.1875
I-50
sF3.625
I-53
sF1.625
I-49
sF1.375
I-46
sF0.375
I-35
sF4.5
I-49
sF1.875
I-57
sF4.6875
I-48
sF2.4375
I-49
sF4.25
I-54
sF1.125
I-46
sF1.3125
I-51
sF4.4375
I-46
sF1.75
I-44
sF2.9375
I-48
sF4.9375
I-44
sF3.1875
I-62
sF3.4375
I-53
sF4.3125
I-47
sF3.6875
I-54
sF3.5625
I-47
sF3.9375
I-51
sF2.25
I-48
sF4.625
I-48
sF2.5
I-47
sF1.0625
I-55
sF2.0625
I-45
sF0.1875
I-33
sF2.75
I-59
sF1.1875
I-42
sF0.5
I-38
sF4.5625
I-44
sF0.25
I-37
sF2.6875
I-46
sF1.4375
I-50
sF4.125
I-50
sF3.5
I-53
sF1.5625
I-47
sF0.6875
I-39
sF3.75
I-56
sF1.6875
I-54
sF0.75
I-38
sF4.875
I-44
sF1.8125
I-50
sF0.8125
I-41
sF2.3125
I-51
sF5.0
I-44
sF1.9375
I-49
sF0.4375
I-38
sF3.875
I-59
sF2.5625
I-47
sF0.9375
I-44
sF0.3125
I-37
ssF45.0
(dp9
F0.0625
I-35
sF0.125
I-36
sF2.0
I-56
sF3.0
I-51
sF4.0
I-48
sF3.0625
I-50
sF1.25
I-42
sF1.0
I-48
sF3.3125
I-50
sF3.25
I-52
sF4.0625
I-51
sF0.5625
I-39
sF3.8125
I-54
sF4.375
I-50
sF2.1875
I-50
sF2.125
I-47
sF2.375
I-50
sF0.625
I-41
sF2.625
I-45
sF0.875
I-49
sF4.75
I-50
sF2.875
I-46
sF4.8125
I-52
sF2.8125
I-54
sF3.125
I-49
sF3.375
I-56
sF1.5
I-47
sF4.1875
I-52
sF3.625
I-58
sF1.625
I-55
sF1.375
I-49
sF0.375
I-46
sF4.5
I-52
sF1.875
I-49
sF4.6875
I-47
sF2.4375
I-47
sF4.25
I-50
sF1.125
I-44
sF1.3125
I-45
sF4.4375
I-54
sF1.75
I-55
sF2.9375
I-47
sF4.9375
I-54
sF3.1875
I-51
sF3.4375
I-55
sF4.3125
I-49
sF3.6875
I-48
sF3.5625
I-54
sF3.9375
I-51
sF2.25
I-44
sF4.625
I-47
sF2.5
I-52
sF1.0625
I-41
sF2.0625
I-45
sF0.1875
I-37
sF2.75
I-47
sF1.1875
I-43
sF0.5
I-41
sF4.5625
I-50
sF0.25
I-38
sF2.6875
I-50
sF1.4375
I-47
sF4.125
I-50
sF3.5
I-60
sF1.5625
I-50
sF0.6875
I-42
sF3.75
I-56
sF1.6875
I-50
sF0.75
I-43
sF4.875
I-56
sF1.8125
I-49
sF0.8125
I-44
sF2.3125
I-46
sF5.0
I-56
sF1.9375
I-47
sF0.4375
I-43
sF3.875
I-53
sF2.5625
I-44
sF0.9375
I-50
sF0.3125
I-42
ssF180.0
(dp10
F0.0625
I-28
sF0.125
I-30
sF2.0
I-46
sF3.0
I-47
sF4.0
I-53
sF3.0625
I-51
sF1.25
I-46
sF1.0
I-43
sF3.3125
I-54
sF3.25
I-50
sF4.0625
I-72
sF0.5625
I-46
sF3.8125
I-53
sF4.375
I-54
sF2.1875
I-49
sF2.125
I-47
sF2.375
I-51
sF0.625
I-44
sF2.625
I-51
sF0.875
I-48
sF4.75
I-51
sF2.875
I-52
sF4.8125
I-69
sF2.8125
I-54
sF3.125
I-47
sF3.375
I-56
sF1.5
I-47
sF4.1875
I-56
sF3.625
I-47
sF1.625
I-50
sF1.375
I-46
sF0.375
I-39
sF4.5
I-53
sF1.875
I-51
sF4.6875
I-54
sF2.4375
I-48
sF4.25
I-52
sF1.125
I-46
sF1.3125
I-47
sF4.4375
I-54
sF1.75
I-50
sF2.9375
I-46
sF4.9375
I-63
sF3.1875
I-48
sF3.4375
I-60
sF4.3125
I-53
sF3.6875
I-48
sF3.5625
I-52
sF3.9375
I-59
sF2.25
I-53
sF4.625
I-56
sF2.5
I-52
sF1.0625
I-41
sF2.0625
I-48
sF0.1875
I-32
sF2.75
I-53
sF1.1875
I-47
sF0.5
I-42
sF4.5625
I-52
sF0.25
I-35
sF2.6875
I-51
sF1.4375
I-47
sF4.125
I-60
sF3.5
I-53
sF1.5625
I-45
sF0.6875
I-44
sF3.75
I-50
sF1.6875
I-50
sF0.75
I-44
sF4.875
I-60
sF1.8125
I-51
sF0.8125
I-44
sF2.3125
I-50
sF5.0
I-68
sF1.9375
I-48
sF0.4375
I-40
sF3.875
I-56
sF2.5625
I-48
sF0.9375
I-44
sF0.3125
I-43
ssF90.0
(dp11
F0.0625
I-29
sF0.125
I-26
sF2.0
I-47
sF3.0
I-50
sF4.0
I-46
sF3.0625
I-47
sF1.25
I-43
sF1.0
I-41
sF3.3125
I-47
sF3.25
I-51
sF4.0625
I-56
sF0.5625
I-37
sF3.8125
I-46
sF4.375
I-44
sF2.1875
I-54
sF2.125
I-50
sF2.375
I-51
sF0.625
I-40
sF2.625
I-44
sF0.875
I-41
sF4.75
I-50
sF2.875
I-52
sF4.8125
I-46
sF2.8125
I-49
sF3.125
I-48
sF3.375
I-46
sF1.5
I-50
sF4.1875
I-51
sF3.625
I-49
sF1.625
I-44
sF1.375
I-44
sF0.375
I-36
sF4.5
I-46
sF1.875
I-46
sF4.6875
I-50
sF2.4375
I-46
sF4.25
I-44
sF1.125
I-44
sF1.3125
I-40
sF4.4375
I-44
sF1.75
I-45
sF2.9375
I-55
sF4.9375
I-45
sF3.1875
I-50
sF3.4375
I-49
sF4.3125
I-45
sF3.6875
I-47
sF3.5625
I-46
sF3.9375
I-47
sF2.25
I-46
sF4.625
I-51
sF2.5
I-44
sF1.0625
I-44
sF2.0625
I-44
sF0.1875
I-31
sF2.75
I-48
sF1.1875
I-43
sF0.5
I-42
sF4.5625
I-50
sF0.25
I-35
sF2.6875
I-45
sF1.4375
I-47
sF4.125
I-50
sF3.5
I-50
sF1.5625
I-42
sF0.6875
I-40
sF3.75
I-47
sF1.6875
I-44
sF0.75
I-42
sF4.875
I-46
sF1.8125
I-46
sF0.8125
I-40
sF2.3125
I-45
sF5.0
I-47
sF1.9375
I-47
sF0.4375
I-37
sF3.875
I-46
sF2.5625
I-47
sF0.9375
I-41
sF0.3125
I-32
ssF112.5
(dp12
F0.0625
I-25
sF0.125
I-28
sF2.0
I-44
sF3.0
I-47
sF4.0
I-42
sF3.0625
I-44
sF1.25
I-42
sF1.0
I-44
sF3.3125
I-48
sF3.25
I-47
sF4.0625
I-46
sF0.5625
I-39
sF3.8125
I-47
sF4.375
I-43
sF2.1875
I-48
sF2.125
I-47
sF2.375
I-52
sF0.625
I-38
sF2.625
I-50
sF0.875
I-40
sF4.75
I-46
sF2.875
I-48
sF4.8125
I-50
sF2.8125
I-47
sF3.125
I-44
sF3.375
I-49
sF1.5
I-44
sF4.1875
I-47
sF3.625
I-48
sF1.625
I-47
sF1.375
I-43
sF0.375
I-35
sF4.5
I-44
sF1.875
I-44
sF4.6875
I-44
sF2.4375
I-51
sF4.25
I-43
sF1.125
I-42
sF1.3125
I-50
sF4.4375
I-43
sF1.75
I-46
sF2.9375
I-46
sF4.9375
I-44
sF3.1875
I-47
sF3.4375
I-48
sF4.3125
I-44
sF3.6875
I-45
sF3.5625
I-49
sF3.9375
I-43
sF2.25
I-46
sF4.625
I-44
sF2.5
I-47
sF1.0625
I-39
sF2.0625
I-46
sF0.1875
I-28
sF2.75
I-45
sF1.1875
I-44
sF0.5
I-35
sF4.5625
I-45
sF0.25
I-32
sF2.6875
I-47
sF1.4375
I-43
sF4.125
I-47
sF3.5
I-47
sF1.5625
I-48
sF0.6875
I-39
sF3.75
I-47
sF1.6875
I-44
sF0.75
I-36
sF4.875
I-47
sF1.8125
I-44
sF0.8125
I-40
sF2.3125
I-47
sF5.0
I-46
sF1.9375
I-48
sF0.4375
I-36
sF3.875
I-50
sF2.5625
I-47
sF0.9375
I-41
sF0.3125
I-31
ss.